target datalayout = "e-m:e-p270:32:32-p271:32:32-p272:64:64-i64:64-i128:128-f80:128-n8:16:32:64-S128"
target triple = "x86_64-pc-linux-gnu"

%struct.lzma_next_coder_s = type { ptr, i64, i64, ptr, ptr, ptr, ptr, ptr, ptr, ptr }
%struct.lzma_filter_info_s = type { i64, ptr, ptr }
%struct.lzma_alone_coder = type { %struct.lzma_next_coder_s, i32, i64, [13 x i8] }
%struct.lzma_options_lzma = type { i32, ptr, i32, i32, i32, i32, i32, i32, i32, i32, i32, i32, i32, i32, i32, i32, i32, i32, i32, i32, i32, i32, ptr, ptr }

; Function Attrs: inlinehint nounwind uwtable
define internal void @write32ne(ptr noundef %0, i32 noundef %1) #6 {
  %3 = alloca ptr, align 8
  %4 = alloca i32, align 4
  store ptr %0, ptr %3, align 8, !tbaa !37
  store i32 %1, ptr %4, align 4, !tbaa !8
  %5 = load ptr, ptr %3, align 8, !tbaa !37
  call void @llvm.memcpy.p0.p0.i64(ptr align 1 %5, ptr align 4 %4, i64 4, i1 false)
  ret void
}

; Function Attrs: nounwind uwtable
define internal i32 @alone_encoder_init(ptr noundef %0, ptr noundef %1, ptr noundef %2) #0 {
  %4 = alloca i32, align 4
  %5 = alloca ptr, align 8
  %6 = alloca ptr, align 8
  %7 = alloca ptr, align 8
  %8 = alloca ptr, align 8
  %9 = alloca i32, align 4
  %10 = alloca %struct.lzma_next_coder_s, align 8
  %11 = alloca i32, align 4
  %12 = alloca [2 x %struct.lzma_filter_info_s], align 16
  store ptr %0, ptr %5, align 8, !tbaa !18
  store ptr %1, ptr %6, align 8, !tbaa !4
  store ptr %2, ptr %7, align 8, !tbaa !4
  br label %13

13:                                               ; preds = %3
  %14 = load ptr, ptr %5, align 8, !tbaa !18
  %15 = getelementptr inbounds nuw %struct.lzma_next_coder_s, ptr %14, i32 0, i32 2
  %16 = load i64, ptr %15, align 8, !tbaa !20
  %17 = icmp ne i64 ptrtoint (ptr @alone_encoder_init to i64), %16
  br i1 %17, label %18, label %21

18:                                               ; preds = %13
  %19 = load ptr, ptr %5, align 8, !tbaa !18
  %20 = load ptr, ptr %6, align 8, !tbaa !4
  call void @lzma_next_end(ptr noundef %19, ptr noundef %20)
  br label %21

21:                                               ; preds = %18, %13
  %22 = load ptr, ptr %5, align 8, !tbaa !18
  %23 = getelementptr inbounds nuw %struct.lzma_next_coder_s, ptr %22, i32 0, i32 2
  store i64 ptrtoint (ptr @alone_encoder_init to i64), ptr %23, align 8, !tbaa !20
  br label %24

24:                                               ; preds = %21
  call void @llvm.lifetime.start.p0(i64 8, ptr %8) #7
  %25 = load ptr, ptr %5, align 8, !tbaa !18
  %26 = getelementptr inbounds nuw %struct.lzma_next_coder_s, ptr %25, i32 0, i32 0
  %27 = load ptr, ptr %26, align 8, !tbaa !22
  store ptr %27, ptr %8, align 8, !tbaa !4
  %28 = load ptr, ptr %8, align 8, !tbaa !4
  %29 = icmp eq ptr %28, null
  br i1 %29, label %30, label %47

30:                                               ; preds = %24
  %31 = load ptr, ptr %6, align 8, !tbaa !4
  %32 = call ptr @lzma_alloc(i64 noundef 112, ptr noundef %31)
  store ptr %32, ptr %8, align 8, !tbaa !4
  %33 = load ptr, ptr %8, align 8, !tbaa !4
  %34 = icmp eq ptr %33, null
  br i1 %34, label %35, label %36

35:                                               ; preds = %30
  store i32 5, ptr %4, align 4
  store i32 1, ptr %9, align 4
  br label %115

36:                                               ; preds = %30
  %37 = load ptr, ptr %8, align 8, !tbaa !4
  %38 = load ptr, ptr %5, align 8, !tbaa !18
  %39 = getelementptr inbounds nuw %struct.lzma_next_coder_s, ptr %38, i32 0, i32 0
  store ptr %37, ptr %39, align 8, !tbaa !22
  %40 = load ptr, ptr %5, align 8, !tbaa !18
  %41 = getelementptr inbounds nuw %struct.lzma_next_coder_s, ptr %40, i32 0, i32 3
  store ptr @alone_encode, ptr %41, align 8, !tbaa !23
  %42 = load ptr, ptr %5, align 8, !tbaa !18
  %43 = getelementptr inbounds nuw %struct.lzma_next_coder_s, ptr %42, i32 0, i32 4
  store ptr @alone_encoder_end, ptr %43, align 8, !tbaa !24
  %44 = load ptr, ptr %8, align 8, !tbaa !4
  %45 = getelementptr inbounds nuw %struct.lzma_alone_coder, ptr %44, i32 0, i32 0
  call void @llvm.memset.p0.i64(ptr align 8 %10, i8 0, i64 80, i1 false)
  %46 = getelementptr inbounds nuw %struct.lzma_next_coder_s, ptr %10, i32 0, i32 1
  store i64 -1, ptr %46, align 8, !tbaa !25
  call void @llvm.memcpy.p0.p0.i64(ptr align 8 %45, ptr align 8 %10, i64 80, i1 false), !tbaa.struct !26
  br label %47

47:                                               ; preds = %36, %24
  %48 = load ptr, ptr %8, align 8, !tbaa !4
  %49 = getelementptr inbounds nuw %struct.lzma_alone_coder, ptr %48, i32 0, i32 1
  store i32 0, ptr %49, align 8, !tbaa !28
  %50 = load ptr, ptr %8, align 8, !tbaa !4
  %51 = getelementptr inbounds nuw %struct.lzma_alone_coder, ptr %50, i32 0, i32 2
  store i64 0, ptr %51, align 8, !tbaa !30
  %52 = load ptr, ptr %7, align 8, !tbaa !4
  %53 = load ptr, ptr %8, align 8, !tbaa !4
  %54 = getelementptr inbounds nuw %struct.lzma_alone_coder, ptr %53, i32 0, i32 3
  %55 = getelementptr inbounds [13 x i8], ptr %54, i64 0, i64 0
  %56 = call zeroext i1 @lzma_lzma_lclppb_encode(ptr noundef %52, ptr noundef %55)
  br i1 %56, label %57, label %58

57:                                               ; preds = %47
  store i32 8, ptr %4, align 4
  store i32 1, ptr %9, align 4
  br label %115

58:                                               ; preds = %47
  %59 = load ptr, ptr %7, align 8, !tbaa !4
  %60 = getelementptr inbounds nuw %struct.lzma_options_lzma, ptr %59, i32 0, i32 0
  %61 = load i32, ptr %60, align 8, !tbaa !31
  %62 = icmp ult i32 %61, 4096
  br i1 %62, label %63, label %64

63:                                               ; preds = %58
  store i32 8, ptr %4, align 4
  store i32 1, ptr %9, align 4
  br label %115

64:                                               ; preds = %58
  call void @llvm.lifetime.start.p0(i64 4, ptr %11) #7
  %65 = load ptr, ptr %7, align 8, !tbaa !4
  %66 = getelementptr inbounds nuw %struct.lzma_options_lzma, ptr %65, i32 0, i32 0
  %67 = load i32, ptr %66, align 8, !tbaa !31
  %68 = sub i32 %67, 1
  store i32 %68, ptr %11, align 4, !tbaa !8
  %69 = load i32, ptr %11, align 4, !tbaa !8
  %70 = lshr i32 %69, 2
  %71 = load i32, ptr %11, align 4, !tbaa !8
  %72 = or i32 %71, %70
  store i32 %72, ptr %11, align 4, !tbaa !8
  %73 = load i32, ptr %11, align 4, !tbaa !8
  %74 = lshr i32 %73, 3
  %75 = load i32, ptr %11, align 4, !tbaa !8
  %76 = or i32 %75, %74
  store i32 %76, ptr %11, align 4, !tbaa !8
  %77 = load i32, ptr %11, align 4, !tbaa !8
  %78 = lshr i32 %77, 4
  %79 = load i32, ptr %11, align 4, !tbaa !8
  %80 = or i32 %79, %78
  store i32 %80, ptr %11, align 4, !tbaa !8
  %81 = load i32, ptr %11, align 4, !tbaa !8
  %82 = lshr i32 %81, 8
  %83 = load i32, ptr %11, align 4, !tbaa !8
  %84 = or i32 %83, %82
  store i32 %84, ptr %11, align 4, !tbaa !8
  %85 = load i32, ptr %11, align 4, !tbaa !8
  %86 = lshr i32 %85, 16
  %87 = load i32, ptr %11, align 4, !tbaa !8
  %88 = or i32 %87, %86
  store i32 %88, ptr %11, align 4, !tbaa !8
  %89 = load i32, ptr %11, align 4, !tbaa !8
  %90 = icmp ne i32 %89, -1
  br i1 %90, label %91, label %94

91:                                               ; preds = %64
  %92 = load i32, ptr %11, align 4, !tbaa !8
  %93 = add i32 %92, 1
  store i32 %93, ptr %11, align 4, !tbaa !8
  br label %94

94:                                               ; preds = %91, %64
  %95 = load ptr, ptr %8, align 8, !tbaa !4
  %96 = getelementptr inbounds nuw %struct.lzma_alone_coder, ptr %95, i32 0, i32 3
  %97 = getelementptr inbounds [13 x i8], ptr %96, i64 0, i64 0
  %98 = getelementptr inbounds i8, ptr %97, i64 1
  %99 = load i32, ptr %11, align 4, !tbaa !8
  call void @write32ne(ptr noundef %98, i32 noundef %99)
  %100 = load ptr, ptr %8, align 8, !tbaa !4
  %101 = getelementptr inbounds nuw %struct.lzma_alone_coder, ptr %100, i32 0, i32 3
  %102 = getelementptr inbounds [13 x i8], ptr %101, i64 0, i64 0
  %103 = getelementptr inbounds i8, ptr %102, i64 1
  %104 = getelementptr inbounds i8, ptr %103, i64 4
  call void @llvm.memset.p0.i64(ptr align 1 %104, i8 -1, i64 8, i1 false)
  call void @llvm.lifetime.start.p0(i64 48, ptr %12) #7
  %105 = getelementptr inbounds nuw %struct.lzma_filter_info_s, ptr %12, i32 0, i32 0
  store i64 4611686018427387905, ptr %105, align 8, !tbaa !33
  %106 = getelementptr inbounds nuw %struct.lzma_filter_info_s, ptr %12, i32 0, i32 1
  store ptr @lzma_lzma_encoder_init, ptr %106, align 8, !tbaa !35
  %107 = getelementptr inbounds nuw %struct.lzma_filter_info_s, ptr %12, i32 0, i32 2
  %108 = load ptr, ptr %7, align 8, !tbaa !4
  store ptr %108, ptr %107, align 8, !tbaa !36
  %109 = getelementptr inbounds %struct.lzma_filter_info_s, ptr %12, i64 1
  call void @llvm.memset.p0.i64(ptr align 8 %109, i8 0, i64 24, i1 false)
  %110 = load ptr, ptr %8, align 8, !tbaa !4
  %111 = getelementptr inbounds nuw %struct.lzma_alone_coder, ptr %110, i32 0, i32 0
  %112 = load ptr, ptr %6, align 8, !tbaa !4
  %113 = getelementptr inbounds [2 x %struct.lzma_filter_info_s], ptr %12, i64 0, i64 0
  %114 = call i32 @lzma_next_filter_init(ptr noundef %111, ptr noundef %112, ptr noundef %113)
  store i32 %114, ptr %4, align 4
  store i32 1, ptr %9, align 4
  call void @llvm.lifetime.end.p0(i64 48, ptr %12) #7
  call void @llvm.lifetime.end.p0(i64 4, ptr %11) #7
  br label %115

115:                                              ; preds = %94, %63, %57, %35
  call void @llvm.lifetime.end.p0(i64 8, ptr %8) #7
  %116 = load i32, ptr %4, align 4
  ret i32 %116
}