; Function Attrs: nounwind uwtable
define internal i32 @alone_encoder_init(ptr noundef %0, ptr noundef %1, ptr noundef %2) #0 {
  %4 = alloca [2 x %struct.lzma_filter_info_s], align 16
  %5 = getelementptr inbounds nuw i8, ptr %0, i64 16
  %6 = load i64, ptr %5, align 8, !tbaa !16
  %.not = icmp eq i64 %6, ptrtoint (ptr @alone_encoder_init to i64)
  br i1 %.not, label %8, label %7

7:                                                ; preds = %3
  tail call void @lzma_next_end(ptr noundef nonnull %0, ptr noundef %1) #6
  br label %8

8:                                                ; preds = %7, %3
  store i64 ptrtoint (ptr @alone_encoder_init to i64), ptr %5, align 8, !tbaa !16
  %9 = load ptr, ptr %0, align 8, !tbaa !18
  %10 = icmp eq ptr %9, null
  br i1 %10, label %11, label %17

11:                                               ; preds = %8
  %12 = tail call ptr @lzma_alloc(i64 noundef 112, ptr noundef %1) #6
  %13 = icmp eq ptr %12, null
  br i1 %13, label %43, label %14

14:                                               ; preds = %11
  store ptr %12, ptr %0, align 8, !tbaa !18
  %15 = getelementptr inbounds nuw i8, ptr %0, i64 24
  store ptr @alone_encode, ptr %15, align 8, !tbaa !19
  %16 = getelementptr inbounds nuw i8, ptr %0, i64 32
  store ptr @alone_encoder_end, ptr %16, align 8, !tbaa !20
  store ptr null, ptr %12, align 8, !tbaa !21
  %.sroa.2.0..sroa_idx = getelementptr inbounds nuw i8, ptr %12, i64 8
  store i64 -1, ptr %.sroa.2.0..sroa_idx, align 8, !tbaa !22
  %.sroa.3.0..sroa_idx = getelementptr inbounds nuw i8, ptr %12, i64 16
  tail call void @llvm.memset.p0.i64(ptr noundef nonnull align 8 dereferenceable(64) %.sroa.3.0..sroa_idx, i8 0, i64 64, i1 false)
  br label %17

17:                                               ; preds = %14, %8
  %.038 = phi ptr [ %12, %14 ], [ %9, %8 ]
  %18 = getelementptr inbounds nuw i8, ptr %.038, i64 80
  store i32 0, ptr %18, align 8, !tbaa !23
  %19 = getelementptr inbounds nuw i8, ptr %.038, i64 88
  store i64 0, ptr %19, align 8, !tbaa !25
  %20 = getelementptr inbounds nuw i8, ptr %.038, i64 96
  %21 = tail call zeroext i1 @lzma_lzma_lclppb_encode(ptr noundef %2, ptr noundef nonnull %20) #6
  br i1 %21, label %43, label %22

22:                                               ; preds = %17
  %23 = load i32, ptr %2, align 8, !tbaa !26
  %24 = icmp ult i32 %23, 4096
  br i1 %24, label %43, label %25

25:                                               ; preds = %22
  %26 = add i32 %23, -1
  %27 = lshr i32 %26, 2
  %28 = or i32 %27, %26
  %29 = lshr i32 %28, 3
  %30 = or i32 %29, %28
  %31 = lshr i32 %30, 4
  %32 = or i32 %31, %30
  %33 = lshr i32 %32, 8
  %34 = or i32 %33, %32
  %35 = lshr i32 %34, 16
  %36 = or i32 %35, %34
  %spec.select = tail call i32 @llvm.uadd.sat.i32(i32 %36, i32 1)
  %37 = getelementptr inbounds nuw i8, ptr %.038, i64 97
  store i32 %spec.select, ptr %37, align 1
  %38 = getelementptr inbounds nuw i8, ptr %.038, i64 101
  store i64 -1, ptr %38, align 1
  call void @llvm.lifetime.start.p0(i64 48, ptr nonnull %4) #6
  store i64 4611686018427387905, ptr %4, align 16, !tbaa !28
  %39 = getelementptr inbounds nuw i8, ptr %4, i64 8
  store ptr @lzma_lzma_encoder_init, ptr %39, align 8, !tbaa !30
  %40 = getelementptr inbounds nuw i8, ptr %4, i64 16
  store ptr %2, ptr %40, align 16, !tbaa !31
  %41 = getelementptr inbounds nuw i8, ptr %4, i64 24
  call void @llvm.memset.p0.i64(ptr noundef nonnull align 8 dereferenceable(24) %41, i8 0, i64 24, i1 false)
  %42 = call i32 @lzma_next_filter_init(ptr noundef nonnull %.038, ptr noundef %1, ptr noundef nonnull %4) #6
  call void @llvm.lifetime.end.p0(i64 48, ptr nonnull %4) #6
  br label %43

43:                                               ; preds = %22, %17, %11, %25
  %.037 = phi i32 [ %42, %25 ], [ 5, %11 ], [ 8, %17 ], [ 8, %22 ]
  ret i32 %.037
}